; ModuleID = 'bench/proj/original/mbt_fps.cpp.ll'
source_filename = "bench/proj/original/mbt_fps.cpp.ll"
target datalayout = "e-m:e-p270:32:32-p271:32:32-p272:64:64-i64:64-i128:128-f80:128-n8:16:32:64-S128"
target triple = "x86_64-pc-linux-gnu"

@_ZL11des_mbt_fps = internal constant [48 x i8] c"McBryde-Thomas Flat-Pole Sine (No. 2)\0A\09Cyl, Sph\00", align 16
@pj_s_mbt_fps = hidden local_unnamed_addr constant ptr @_ZL11des_mbt_fps, align 8
@.str = private unnamed_addr constant [8 x i8] c"mbt_fps\00", align 1

; Function Attrs: mustprogress uwtable
define hidden noundef ptr @pj_mbt_fps(ptr noundef writeonly %0) local_unnamed_addr #0 {
  %.not = icmp eq ptr %0, null
  br i1 %.not, label %6, label %2

2:                                                ; preds = %1
  %3 = getelementptr inbounds i8, ptr %0, i64 216
  store double 0.000000e+00, ptr %3, align 8
  %4 = getelementptr inbounds i8, ptr %0, i64 112
  store ptr @_ZL17mbt_fps_s_inverse5PJ_XYP8PJconsts, ptr %4, align 8
  %5 = getelementptr inbounds i8, ptr %0, i64 104
  store ptr @_ZL17mbt_fps_s_forward5PJ_LPP8PJconsts, ptr %5, align 8
  br label %15

6:                                                ; preds = %1
  %7 = tail call noundef ptr @_Z6pj_newv()
  %8 = icmp eq ptr %7, null
  br i1 %8, label %15, label %9

9:                                                ; preds = %6
  %10 = getelementptr inbounds i8, ptr %7, i64 8
  store ptr @.str, ptr %10, align 8
  %11 = getelementptr inbounds i8, ptr %7, i64 16
  store ptr @_ZL11des_mbt_fps, ptr %11, align 8
  %12 = getelementptr inbounds i8, ptr %7, i64 360
  store i32 1, ptr %12, align 8
  %13 = getelementptr inbounds i8, ptr %7, i64 380
  store i32 4, ptr %13, align 4
  %14 = getelementptr inbounds i8, ptr %7, i64 384
  store i32 1, ptr %14, align 8
  br label %15

15:                                               ; preds = %6, %9, %2
  %.0 = phi ptr [ %0, %2 ], [ %7, %9 ], [ null, %6 ]
  ret ptr %.0
}

; Function Attrs: mustprogress nofree norecurse nosync nounwind willreturn memory(argmem: write) uwtable
define hidden noundef ptr @_Z36pj_projection_specific_setup_mbt_fpsP8PJconsts(ptr noundef returned writeonly %0) local_unnamed_addr #1 {
  %2 = getelementptr inbounds i8, ptr %0, i64 216
  store double 0.000000e+00, ptr %2, align 8
  %3 = getelementptr inbounds i8, ptr %0, i64 112
  store ptr @_ZL17mbt_fps_s_inverse5PJ_XYP8PJconsts, ptr %3, align 8
  %4 = getelementptr inbounds i8, ptr %0, i64 104
  store ptr @_ZL17mbt_fps_s_forward5PJ_LPP8PJconsts, ptr %4, align 8
  ret ptr %0
}

declare noundef ptr @_Z6pj_newv() local_unnamed_addr #2

; Function Attrs: mustprogress uwtable
define internal { double, double } @_ZL17mbt_fps_s_inverse5PJ_XYP8PJconsts(double %0, double %1, ptr nocapture noundef readonly %2) #0 {
  %4 = load ptr, ptr %2, align 8
  %5 = fdiv double %1, 1.444920e+00
  %6 = tail call noundef double @_Z5aasinP6pj_ctxd(ptr noundef %4, double noundef %5)
  %7 = fmul double %6, 1.365090e+00
  %8 = tail call double @cos(double noundef %7) #6
  %9 = fmul double %8, 3.000000e+00
  %10 = tail call double @cos(double noundef %6) #6
  %11 = fdiv double %9, %10
  %12 = fadd double %11, 1.000000e+00
  %13 = fmul double %12, 2.224800e-01
  %14 = fdiv double %0, %13
  %15 = load ptr, ptr %2, align 8
  %16 = tail call double @sin(double noundef %6) #6
  %17 = tail call double @sin(double noundef %7) #6
  %18 = tail call double @llvm.fmuladd.f64(double %16, double 4.550300e-01, double %17)
  %19 = fdiv double %18, 1.415460e+00
  %20 = tail call noundef double @_Z5aasinP6pj_ctxd(ptr noundef %15, double noundef %19)
  %.fca.0.insert = insertvalue { double, double } poison, double %14, 0
  %.fca.1.insert = insertvalue { double, double } %.fca.0.insert, double %20, 1
  ret { double, double } %.fca.1.insert
}

; Function Attrs: mustprogress nofree nounwind memory(write) uwtable
define internal { double, double } @_ZL17mbt_fps_s_forward5PJ_LPP8PJconsts(double %0, double %1, ptr nocapture readnone %2) #3 {
  %4 = tail call double @sin(double noundef %1) #6
  %5 = fmul double %4, 1.415460e+00
  br label %6

6:                                                ; preds = %6, %3
  %.sroa.2.016 = phi double [ %1, %3 ], [ %16, %6 ]
  %.015 = phi i32 [ 10, %3 ], [ %19, %6 ]
  %7 = fdiv double %.sroa.2.016, 1.365090e+00
  %8 = tail call double @sin(double noundef %7) #6
  %9 = tail call double @sin(double noundef %.sroa.2.016) #6
  %10 = tail call double @llvm.fmuladd.f64(double %8, double 4.550300e-01, double %9)
  %11 = fsub double %10, %5
  %12 = tail call double @cos(double noundef %7) #6
  %13 = tail call double @cos(double noundef %.sroa.2.016) #6
  %14 = tail call double @llvm.fmuladd.f64(double %12, double 0x3FD5555555555555, double %13)
  %15 = fdiv double %11, %14
  %16 = fsub double %.sroa.2.016, %15
  %17 = tail call double @llvm.fabs.f64(double %15)
  %18 = fcmp olt double %17, 0x3E7AD7F29ABCAF48
  %19 = add nsw i32 %.015, -1
  %.not = icmp eq i32 %19, 0
  %or.cond = select i1 %18, i1 true, i1 %.not
  br i1 %or.cond, label %20, label %6, !llvm.loop !4

20:                                               ; preds = %6
  %21 = fdiv double %16, 1.365090e+00
  %22 = fmul double %0, 2.224800e-01
  %23 = tail call double @cos(double noundef %16) #6
  %24 = fmul double %23, 3.000000e+00
  %25 = tail call double @cos(double noundef %21) #6
  %26 = fdiv double %24, %25
  %27 = fadd double %26, 1.000000e+00
  %28 = fmul double %22, %27
  %29 = tail call double @sin(double noundef %21) #6
  %30 = fmul double %29, 1.444920e+00
  %.fca.0.insert = insertvalue { double, double } poison, double %28, 0
  %.fca.1.insert = insertvalue { double, double } %.fca.0.insert, double %30, 1
  ret { double, double } %.fca.1.insert
}

declare noundef double @_Z5aasinP6pj_ctxd(ptr noundef, double noundef) local_unnamed_addr #2

; Function Attrs: mustprogress nofree nounwind willreturn memory(write)
declare double @cos(double noundef) local_unnamed_addr #4

; Function Attrs: mustprogress nofree nounwind willreturn memory(write)
declare double @sin(double noundef) local_unnamed_addr #4

; Function Attrs: mustprogress nocallback nofree nosync nounwind speculatable willreturn memory(none)
declare double @llvm.fmuladd.f64(double, double, double) #5

; Function Attrs: mustprogress nocallback nofree nosync nounwind speculatable willreturn memory(none)
declare double @llvm.fabs.f64(double) #5


!llvm.module.flags = !{!0, !1, !2, !3}

!0 = !{i32 1, !"wchar_size", i32 4}
!1 = !{i32 8, !"PIC Level", i32 2}
!2 = !{i32 7, !"uwtable", i32 2}
!3 = !{i32 7, !"frame-pointer", i32 2}
!4 = distinct !{!4, !5}
!5 = !{!"llvm.loop.mustprogress"}
